target datalayout = "e-m:e-p270:32:32-p271:32:32-p272:64:64-i64:64-i128:128-f80:128-n8:16:32:64-S128"
target triple = "x86_64-pc-linux-gnu"

%struct.strvec = type { ptr, i64, i64 }
%struct.strbuf = type { i64, i64, ptr }
%struct.object_id = type { [32 x i8], i32 }
%struct.oidset = type { %struct.kh_oid_set }
%struct.kh_oid_set = type { i32, i32, i32, i32, ptr, ptr, ptr }
%struct.rev_info = type { ptr, %struct.object_array, ptr, %struct.object_array, %struct.rev_cmdline_info, %struct.list_objects_filter_options, %struct.ref_exclusions, ptr, ptr, ptr, %struct.pathspec, i32, i32, i32, i32, i64, i32, i32, %struct.date_mode, i32, i32, i32, i32, ptr, i32, i32, ptr, ptr, i32, ptr, ptr, %struct.ident_split, ptr, i32, ptr, ptr, ptr, i32, i32, i32, ptr, %struct.grep_opt, ptr, i32, i32, i64, i64, i64, i32, i32, ptr, ptr, ptr, %struct.diff_options, %struct.diff_options, ptr, %struct.decoration, %struct.decoration, %struct.decoration, %struct.display_notes_opt, ptr, ptr, ptr, ptr, ptr, i32, ptr, i32, i32, i32, %struct.decoration, ptr, ptr, ptr, ptr, ptr, ptr, ptr, i32, ptr, i32, ptr, %struct.oidset }
%struct.object_array = type { i32, i32, ptr }
%struct.rev_cmdline_info = type { i32, i32, ptr }
%struct.list_objects_filter_options = type { %struct.strbuf, i32, i8, ptr, i64, i64, i32, i64, i64, ptr }
%struct.ref_exclusions = type { %struct.string_list, %struct.strvec, i8 }
%struct.string_list = type { ptr, i64, i64, i8, ptr }
%struct.pathspec = type { i32, i8, i32, i32, ptr }
%struct.date_mode = type { i32, i32, ptr }
%struct.ident_split = type { ptr, ptr, ptr, ptr, ptr, ptr, ptr, ptr }
%struct.grep_opt = type { ptr, ptr, ptr, ptr, ptr, ptr, i32, i32, i32, i32, i32, i32, i32, i32, i32, i32, i32, i32, i32, i32, i32, i32, i32, i32, i32, i32, i32, i32, i32, i32, i32, i32, [9 x [75 x i8]], i32, i32, i32, i32, i32, i32, i32, ptr, ptr, ptr }
%struct.diff_options = type { ptr, ptr, i32, i32, ptr, i32, ptr, i64, i64, ptr, ptr, ptr, ptr, %struct.diff_flags, i32, i32, i32, i32, i32, i32, i32, i32, i32, i32, i32, i32, i32, i32, i32, i32, i32, i32, i32, i32, i32, i32, ptr, i32, ptr, i32, i32, ptr, i64, i64, i32, i32, i32, i32, ptr, i32, i32, ptr, i32, i32, ptr, ptr, i32, [3 x i8], %struct.pathspec, ptr, ptr, ptr, ptr, ptr, ptr, ptr, ptr, i32, ptr, i32, i32, ptr, ptr, i32 }
%struct.diff_flags = type { i32, i32, i32, i32, i32, i32, i32, i32, i32, i32, i32, i32, i32, i32, i32, i32, i32, i32, i32, i32, i32, i32, i32, i32, i32, i32, i32, i32, i32, i32, i32, i32, i32, i32, i32 }
%struct.display_notes_opt = type { i32, %struct.string_list }
%struct.decoration = type { ptr, i32, i32, ptr }
%struct.all_refs_cb = type { i32, i32, ptr, ptr, ptr }
%struct.worktree = type { ptr, ptr, ptr, ptr, ptr, ptr, %struct.object_id, i32, i32, i32, i32, i32 }

@the_repository = external global ptr, align 8

; Function Attrs: nounwind uwtable
define internal void @add_other_reflogs_to_pending(ptr noundef %0) #0 {
  %2 = alloca ptr, align 8
  %3 = alloca ptr, align 8
  %4 = alloca ptr, align 8
  %5 = alloca ptr, align 8
  %6 = alloca i32, align 4
  store ptr %0, ptr %2, align 8, !tbaa !164
  call void @llvm.lifetime.start.p0(i64 8, ptr %3) #12
  call void @llvm.lifetime.start.p0(i64 8, ptr %4) #12
  %7 = call ptr @get_worktrees()
  store ptr %7, ptr %3, align 8, !tbaa !169
  %8 = load ptr, ptr %3, align 8, !tbaa !169
  store ptr %8, ptr %4, align 8, !tbaa !169
  br label %9

9:                                                ; preds = %32, %1
  %10 = load ptr, ptr %4, align 8, !tbaa !169
  %11 = load ptr, ptr %10, align 8, !tbaa !171
  %12 = icmp ne ptr %11, null
  br i1 %12, label %13, label %35

13:                                               ; preds = %9
  call void @llvm.lifetime.start.p0(i64 8, ptr %5) #12
  %14 = load ptr, ptr %4, align 8, !tbaa !169
  %15 = load ptr, ptr %14, align 8, !tbaa !171
  store ptr %15, ptr %5, align 8, !tbaa !171
  %16 = load ptr, ptr %5, align 8, !tbaa !171
  %17 = getelementptr inbounds nuw %struct.worktree, ptr %16, i32 0, i32 9
  %18 = load i32, ptr %17, align 4, !tbaa !172
  %19 = icmp ne i32 %18, 0
  br i1 %19, label %20, label %21

20:                                               ; preds = %13
  store i32 4, ptr %6, align 4
  br label %29

21:                                               ; preds = %13
  %22 = load ptr, ptr %5, align 8, !tbaa !171
  %23 = load ptr, ptr %2, align 8, !tbaa !164
  %24 = getelementptr inbounds nuw %struct.all_refs_cb, ptr %23, i32 0, i32 4
  store ptr %22, ptr %24, align 8, !tbaa !163
  %25 = load ptr, ptr %5, align 8, !tbaa !171
  %26 = call ptr @get_worktree_ref_store(ptr noundef %25)
  %27 = load ptr, ptr %2, align 8, !tbaa !164
  %28 = call i32 @refs_for_each_reflog(ptr noundef %26, ptr noundef @handle_one_reflog, ptr noundef %27)
  store i32 0, ptr %6, align 4
  br label %29

29:                                               ; preds = %21, %20
  call void @llvm.lifetime.end.p0(i64 8, ptr %5) #12
  %30 = load i32, ptr %6, align 4
  switch i32 %30, label %37 [
    i32 0, label %31
    i32 4, label %32
  ]

31:                                               ; preds = %29
  br label %32

32:                                               ; preds = %31, %29
  %33 = load ptr, ptr %4, align 8, !tbaa !169
  %34 = getelementptr inbounds nuw ptr, ptr %33, i32 1
  store ptr %34, ptr %4, align 8, !tbaa !169
  br label %9, !llvm.loop !174

35:                                               ; preds = %9
  %36 = load ptr, ptr %3, align 8, !tbaa !169
  call void @free_worktrees(ptr noundef %36)
  call void @llvm.lifetime.end.p0(i64 8, ptr %4) #12
  call void @llvm.lifetime.end.p0(i64 8, ptr %3) #12
  ret void

37:                                               ; preds = %29
  unreachable
}

; Function Attrs: nounwind uwtable
define dso_local void @add_reflogs_to_pending(ptr noundef %0, i32 noundef %1) #0 {
  %3 = alloca ptr, align 8
  %4 = alloca i32, align 4
  %5 = alloca %struct.all_refs_cb, align 8
  store ptr %0, ptr %3, align 8, !tbaa !88
  store i32 %1, ptr %4, align 4, !tbaa !9
  call void @llvm.lifetime.start.p0(i64 32, ptr %5) #12
  %6 = load ptr, ptr %3, align 8, !tbaa !88
  %7 = getelementptr inbounds nuw %struct.all_refs_cb, ptr %5, i32 0, i32 2
  store ptr %6, ptr %7, align 8, !tbaa !159
  %8 = load i32, ptr %4, align 4, !tbaa !9
  %9 = getelementptr inbounds nuw %struct.all_refs_cb, ptr %5, i32 0, i32 0
  store i32 %8, ptr %9, align 8, !tbaa !162
  %10 = getelementptr inbounds nuw %struct.all_refs_cb, ptr %5, i32 0, i32 4
  store ptr null, ptr %10, align 8, !tbaa !163
  %11 = load ptr, ptr @the_repository, align 8, !tbaa !43
  %12 = call ptr @get_main_ref_store(ptr noundef %11)
  %13 = call i32 @refs_for_each_reflog(ptr noundef %12, ptr noundef @handle_one_reflog, ptr noundef %5)
  %14 = load ptr, ptr %3, align 8, !tbaa !88
  %15 = getelementptr inbounds nuw %struct.rev_info, ptr %14, i32 0, i32 15
  %16 = load i64, ptr %15, align 8
  %17 = lshr i64 %16, 12
  %18 = and i64 %17, 1
  %19 = trunc i64 %18 to i32
  %20 = icmp ne i32 %19, 0
  br i1 %20, label %22, label %21

21:                                               ; preds = %2
  call void @add_other_reflogs_to_pending(ptr noundef %5)
  br label %22

22:                                               ; preds = %21, %2
  call void @llvm.lifetime.end.p0(i64 32, ptr %5) #12
  ret void
}