; Function Attrs: nounwind uwtable
define dso_local void @add_reflogs_to_pending(ptr noundef %0, i32 noundef %1) local_unnamed_addr #2 {
  %3 = alloca %struct.all_refs_cb, align 8
  call void @llvm.lifetime.start.p0(i64 32, ptr nonnull %3) #26
  %4 = getelementptr inbounds nuw i8, ptr %3, i64 8
  store ptr %0, ptr %4, align 8, !tbaa !123
  store i32 %1, ptr %3, align 8, !tbaa !127
  %5 = getelementptr inbounds nuw i8, ptr %3, i64 24
  store ptr null, ptr %5, align 8, !tbaa !128
  %6 = load ptr, ptr @the_repository, align 8, !tbaa !71
  %7 = tail call ptr @get_main_ref_store(ptr noundef %6) #26
  %8 = call i32 @refs_for_each_reflog(ptr noundef %7, ptr noundef nonnull @handle_one_reflog, ptr noundef nonnull %3) #26
  %9 = getelementptr inbounds nuw i8, ptr %0, i64 288
  %10 = load i64, ptr %9, align 8
  %11 = and i64 %10, 4096
  %.not = icmp eq i64 %11, 0
  br i1 %.not, label %12, label %24

12:                                               ; preds = %2
  %13 = call ptr @get_worktrees() #26
  %14 = load ptr, ptr %13, align 8, !tbaa !129
  %.not12.i = icmp eq ptr %14, null
  br i1 %.not12.i, label %add_other_reflogs_to_pending.exit, label %.lr.ph.i

.lr.ph.i:                                         ; preds = %12, %21
  %15 = phi ptr [ %23, %21 ], [ %14, %12 ]
  %.013.i = phi ptr [ %22, %21 ], [ %13, %12 ]
  %16 = getelementptr inbounds nuw i8, ptr %15, i64 92
  %17 = load i32, ptr %16, align 4, !tbaa !130
  %.not11.i = icmp eq i32 %17, 0
  br i1 %.not11.i, label %18, label %21

18:                                               ; preds = %.lr.ph.i
  store ptr %15, ptr %5, align 8, !tbaa !128
  %19 = call ptr @get_worktree_ref_store(ptr noundef nonnull %15) #26
  %20 = call i32 @refs_for_each_reflog(ptr noundef %19, ptr noundef nonnull @handle_one_reflog, ptr noundef nonnull %3) #26
  br label %21

21:                                               ; preds = %18, %.lr.ph.i
  %22 = getelementptr inbounds nuw i8, ptr %.013.i, i64 8
  %23 = load ptr, ptr %22, align 8, !tbaa !129
  %.not.i = icmp eq ptr %23, null
  br i1 %.not.i, label %add_other_reflogs_to_pending.exit, label %.lr.ph.i, !llvm.loop !132

add_other_reflogs_to_pending.exit:                ; preds = %21, %12
  call void @free_worktrees(ptr noundef nonnull %13) #26
  br label %24

24:                                               ; preds = %add_other_reflogs_to_pending.exit, %2
  call void @llvm.lifetime.end.p0(i64 32, ptr nonnull %3) #26
  ret void
}